; Function Attrs: nounwind uwtable
define hidden void @X11_QuitKeyboard(ptr noundef readonly captures(none) %0) local_unnamed_addr #0 {
  %2 = getelementptr inbounds nuw i8, ptr %0, i64 1656
  %3 = load ptr, ptr %2, align 8
  %4 = getelementptr inbounds nuw i8, ptr %3, i64 1696
  %5 = load ptr, ptr %4, align 8
  %.not = icmp eq ptr %5, null
  br i1 %.not, label %8, label %6

6:                                                ; preds = %1
  %7 = load ptr, ptr @X11_XkbFreeKeyboard, align 8
  tail call void %7(ptr noundef nonnull %5, i32 noundef 0, i32 noundef 1) #9
  store ptr null, ptr %4, align 8
  br label %8

8:                                                ; preds = %6, %1
  ret void
}